; Function Attrs: nounwind uwtable
define hidden noundef ptr @X509_NAME_ENTRY_create_by_txt(ptr noundef captures(address_is_null) %0, ptr noundef %1, i32 noundef %2, ptr noundef %3, i32 noundef %4) local_unnamed_addr #0 {
  %6 = tail call ptr @OBJ_txt2obj(ptr noundef %1, i32 noundef 0) #7
  %7 = icmp eq ptr %6, null
  br i1 %7, label %8, label %9

8:                                                ; preds = %5
  tail call void @ERR_put_error(i32 noundef 11, i32 noundef 0, i32 noundef 111, ptr noundef nonnull @.str, i32 noundef 289) #7
  tail call void (i32, ...) @ERR_add_error_data(i32 noundef 2, ptr noundef nonnull @.str.1, ptr noundef %1) #7
  br label %30

9:                                                ; preds = %5
  %10 = icmp eq ptr %0, null
  br i1 %10, label %14, label %11

11:                                               ; preds = %9
  %12 = load ptr, ptr %0, align 8, !tbaa !30
  %13 = icmp eq ptr %12, null
  br i1 %13, label %14, label %X509_NAME_ENTRY_set_object.exit.i

14:                                               ; preds = %11, %9
  %15 = tail call ptr @X509_NAME_ENTRY_new() #7
  %16 = icmp eq ptr %15, null
  br i1 %16, label %X509_NAME_ENTRY_create_by_OBJ.exit, label %X509_NAME_ENTRY_set_object.exit.i

X509_NAME_ENTRY_set_object.exit.i:                ; preds = %11, %14
  %.0.i = phi ptr [ %15, %14 ], [ %12, %11 ]
  %17 = load ptr, ptr %.0.i, align 8, !tbaa !15
  tail call void @ASN1_OBJECT_free(ptr noundef %17) #7
  %18 = tail call ptr @OBJ_dup(ptr noundef nonnull %6) #7
  store ptr %18, ptr %.0.i, align 8, !tbaa !15
  %.not27.i = icmp eq ptr %18, null
  br i1 %.not27.i, label %26, label %19

19:                                               ; preds = %X509_NAME_ENTRY_set_object.exit.i
  %20 = tail call i32 @X509_NAME_ENTRY_set_data(ptr noundef nonnull %.0.i, i32 noundef %2, ptr noundef %3, i32 noundef %4)
  %.not22.i = icmp eq i32 %20, 0
  br i1 %.not22.i, label %26, label %21

21:                                               ; preds = %19
  br i1 %10, label %X509_NAME_ENTRY_create_by_OBJ.exit, label %22

22:                                               ; preds = %21
  %23 = load ptr, ptr %0, align 8, !tbaa !30
  %24 = icmp eq ptr %23, null
  br i1 %24, label %25, label %X509_NAME_ENTRY_create_by_OBJ.exit

25:                                               ; preds = %22
  store ptr %.0.i, ptr %0, align 8, !tbaa !30
  br label %X509_NAME_ENTRY_create_by_OBJ.exit

26:                                               ; preds = %19, %X509_NAME_ENTRY_set_object.exit.i
  br i1 %10, label %29, label %27

27:                                               ; preds = %26
  %28 = load ptr, ptr %0, align 8, !tbaa !30
  %.not23.i = icmp eq ptr %.0.i, %28
  br i1 %.not23.i, label %X509_NAME_ENTRY_create_by_OBJ.exit, label %29

29:                                               ; preds = %27, %26
  tail call void @X509_NAME_ENTRY_free(ptr noundef nonnull %.0.i) #7
  br label %X509_NAME_ENTRY_create_by_OBJ.exit

X509_NAME_ENTRY_create_by_OBJ.exit:               ; preds = %14, %21, %22, %25, %27, %29
  %.018.i = phi ptr [ null, %14 ], [ %.0.i, %25 ], [ %.0.i, %22 ], [ %.0.i, %21 ], [ null, %29 ], [ null, %27 ]
  tail call void @ASN1_OBJECT_free(ptr noundef nonnull %6) #7
  br label %30

30:                                               ; preds = %X509_NAME_ENTRY_create_by_OBJ.exit, %8
  %.0 = phi ptr [ null, %8 ], [ %.018.i, %X509_NAME_ENTRY_create_by_OBJ.exit ]
  ret ptr %.0
}